; ModuleID = '28/212.c'
source_filename = "28/212.c"
target datalayout = "e-m:e-p270:32:32-p271:32:32-p272:64:64-i64:64-f80:128-n8:16:32:64-S128"
target triple = "x86_64-pc-linux-gnu"

@.str = private unnamed_addr constant [3 x i8] c"%d\00", align 1
@.str.1 = private unnamed_addr constant [4 x i8] c",%d\00", align 1

; Function Attrs: noinline nounwind uwtable
define dso_local void @main() #0 {
  %1 = alloca i8*, align 8
  %2 = alloca [10000 x i8], align 16
  %3 = alloca [10000 x i32], align 16
  %4 = alloca i32, align 4
  %5 = alloca i32, align 4
  %6 = alloca [10000 x i32], align 16
  %7 = alloca i32, align 4
  %8 = bitcast [10000 x i32]* %3 to i8*
  call void @llvm.memset.p0i8.i64(i8* align 16 %8, i8 0, i64 40000, i1 false)
  store i32 0, i32* %4, align 4
  store i32 0, i32* %5, align 4
  store i32 0, i32* %7, align 4
  %9 = getelementptr inbounds [10000 x i8], [10000 x i8]* %2, i64 0, i64 0
  %10 = call i32 (i8*, ...) bitcast (i32 (...)* @gets to i32 (i8*, ...)*)(i8* %9)
  %11 = getelementptr inbounds [10000 x i8], [10000 x i8]* %2, i64 0, i64 0
  store i8* %11, i8** %1, align 8
  br label %12

12:                                               ; preds = %32, %0
  %13 = load i8*, i8** %1, align 8
  %14 = load i8, i8* %13, align 1
  %15 = sext i8 %14 to i32
  %16 = icmp ne i32 %15, 0
  br i1 %16, label %17, label %35

17:                                               ; preds = %12
  %18 = load i8*, i8** %1, align 8
  %19 = load i8, i8* %18, align 1
  %20 = sext i8 %19 to i32
  %21 = icmp eq i32 %20, 32
  br i1 %21, label %22, label %25

22:                                               ; preds = %17
  %23 = load i32, i32* %4, align 4
  %24 = add nsw i32 %23, 1
  store i32 %24, i32* %4, align 4
  br label %31

25:                                               ; preds = %17
  %26 = load i32, i32* %4, align 4
  %27 = sext i32 %26 to i64
  %28 = getelementptr inbounds [10000 x i32], [10000 x i32]* %3, i64 0, i64 %27
  %29 = load i32, i32* %28, align 4
  %30 = add nsw i32 %29, 1
  store i32 %30, i32* %28, align 4
  br label %31

31:                                               ; preds = %25, %22
  br label %32

32:                                               ; preds = %31
  %33 = load i8*, i8** %1, align 8
  %34 = getelementptr inbounds i8, i8* %33, i32 1
  store i8* %34, i8** %1, align 8
  br label %12

35:                                               ; preds = %12
  store i32 0, i32* %5, align 4
  br label %36

36:                                               ; preds = %56, %35
  %37 = load i32, i32* %5, align 4
  %38 = icmp slt i32 %37, 1000
  br i1 %38, label %39, label %59

39:                                               ; preds = %36
  %40 = load i32, i32* %5, align 4
  %41 = sext i32 %40 to i64
  %42 = getelementptr inbounds [10000 x i32], [10000 x i32]* %3, i64 0, i64 %41
  %43 = load i32, i32* %42, align 4
  %44 = icmp ne i32 %43, 0
  br i1 %44, label %45, label %55

45:                                               ; preds = %39
  %46 = load i32, i32* %5, align 4
  %47 = sext i32 %46 to i64
  %48 = getelementptr inbounds [10000 x i32], [10000 x i32]* %3, i64 0, i64 %47
  %49 = load i32, i32* %48, align 4
  %50 = load i32, i32* %7, align 4
  %51 = sext i32 %50 to i64
  %52 = getelementptr inbounds [10000 x i32], [10000 x i32]* %6, i64 0, i64 %51
  store i32 %49, i32* %52, align 4
  %53 = load i32, i32* %7, align 4
  %54 = add nsw i32 %53, 1
  store i32 %54, i32* %7, align 4
  br label %55

55:                                               ; preds = %45, %39
  br label %56

56:                                               ; preds = %55
  %57 = load i32, i32* %5, align 4
  %58 = add nsw i32 %57, 1
  store i32 %58, i32* %5, align 4
  br label %36

59:                                               ; preds = %36
  %60 = getelementptr inbounds [10000 x i32], [10000 x i32]* %6, i64 0, i64 0
  %61 = load i32, i32* %60, align 16
  %62 = call i32 (i8*, ...) @printf(i8* getelementptr inbounds ([3 x i8], [3 x i8]* @.str, i64 0, i64 0), i32 %61)
  store i32 1, i32* %4, align 4
  br label %63

63:                                               ; preds = %73, %59
  %64 = load i32, i32* %4, align 4
  %65 = load i32, i32* %7, align 4
  %66 = icmp slt i32 %64, %65
  br i1 %66, label %67, label %76

67:                                               ; preds = %63
  %68 = load i32, i32* %4, align 4
  %69 = sext i32 %68 to i64
  %70 = getelementptr inbounds [10000 x i32], [10000 x i32]* %6, i64 0, i64 %69
  %71 = load i32, i32* %70, align 4
  %72 = call i32 (i8*, ...) @printf(i8* getelementptr inbounds ([4 x i8], [4 x i8]* @.str.1, i64 0, i64 0), i32 %71)
  br label %73

73:                                               ; preds = %67
  %74 = load i32, i32* %4, align 4
  %75 = add nsw i32 %74, 1
  store i32 %75, i32* %4, align 4
  br label %63

76:                                               ; preds = %63
  ret void
}

; Function Attrs: argmemonly nounwind willreturn
declare void @llvm.memset.p0i8.i64(i8* nocapture writeonly, i8, i64, i1 immarg) #1

declare dso_local i32 @gets(...) #2

declare dso_local i32 @printf(i8*, ...) #2


!llvm.module.flags = !{!0}
!llvm.ident = !{!1}

!0 = !{i32 1, !"wchar_size", i32 4}
!1 = !{!"clang version 10.0.0-4ubuntu1 "}
