; ModuleID = 'source-C-CXX/27/212.c'
source_filename = "source-C-CXX/27/212.c"
target datalayout = "e-m:e-p270:32:32-p271:32:32-p272:64:64-i64:64-f80:128-n8:16:32:64-S128"
target triple = "x86_64-pc-linux-gnu"

@.str = private unnamed_addr constant [3 x i8] c"%d\00", align 1
@.str.1 = private unnamed_addr constant [4 x i8] c",%d\00", align 1

; Function Attrs: nounwind sspstrong uwtable
define dso_local void @main() local_unnamed_addr #0 {
  %1 = alloca [10000 x i8], align 16
  %2 = alloca [10000 x i32], align 16
  %3 = alloca [10000 x i32], align 16
  %4 = getelementptr inbounds [10000 x i8], [10000 x i8]* %1, i64 0, i64 0
  call void @llvm.lifetime.start.p0i8(i64 10000, i8* nonnull %4) #5
  %5 = bitcast [10000 x i32]* %2 to i8*
  call void @llvm.lifetime.start.p0i8(i64 40000, i8* nonnull %5) #5
  call void @llvm.memset.p0i8.i64(i8* noundef nonnull align 16 dereferenceable(40000) %5, i8 0, i64 40000, i1 false)
  %6 = bitcast [10000 x i32]* %3 to i8*
  call void @llvm.lifetime.start.p0i8(i64 40000, i8* nonnull %6) #5
  %7 = call i32 (i8*, ...) bitcast (i32 (...)* @gets to i32 (i8*, ...)*)(i8* nonnull %4) #5
  br label %8

8:                                                ; preds = %19, %0
  %9 = phi i8* [ %4, %0 ], [ %21, %19 ]
  %10 = phi i32 [ 0, %0 ], [ %20, %19 ]
  %11 = load i8, i8* %9, align 1, !tbaa !5
  switch i8 %11, label %14 [
    i8 0, label %22
    i8 32, label %12
  ]

12:                                               ; preds = %8
  %13 = add nsw i32 %10, 1
  br label %19

14:                                               ; preds = %8
  %15 = sext i32 %10 to i64
  %16 = getelementptr inbounds [10000 x i32], [10000 x i32]* %2, i64 0, i64 %15
  %17 = load i32, i32* %16, align 4, !tbaa !8
  %18 = add nsw i32 %17, 1
  store i32 %18, i32* %16, align 4, !tbaa !8
  br label %19

19:                                               ; preds = %12, %14
  %20 = phi i32 [ %13, %12 ], [ %10, %14 ]
  %21 = getelementptr inbounds i8, i8* %9, i64 1
  br label %8, !llvm.loop !10

22:                                               ; preds = %8, %57
  %23 = phi i64 [ %59, %57 ], [ 0, %8 ]
  %24 = phi i32 [ %58, %57 ], [ 0, %8 ]
  %25 = getelementptr inbounds [10000 x i32], [10000 x i32]* %2, i64 0, i64 %23
  %26 = load i32, i32* %25, align 8, !tbaa !8
  %27 = icmp eq i32 %26, 0
  br i1 %27, label %32, label %28

28:                                               ; preds = %22
  %29 = sext i32 %24 to i64
  %30 = getelementptr inbounds [10000 x i32], [10000 x i32]* %3, i64 0, i64 %29
  store i32 %26, i32* %30, align 4, !tbaa !8
  %31 = add nsw i32 %24, 1
  br label %32

32:                                               ; preds = %22, %28
  %33 = phi i32 [ %31, %28 ], [ %24, %22 ]
  %34 = or i64 %23, 1
  %35 = getelementptr inbounds [10000 x i32], [10000 x i32]* %2, i64 0, i64 %34
  %36 = load i32, i32* %35, align 4, !tbaa !8
  %37 = icmp eq i32 %36, 0
  br i1 %37, label %57, label %53

38:                                               ; preds = %57
  %39 = getelementptr inbounds [10000 x i32], [10000 x i32]* %3, i64 0, i64 0
  %40 = load i32, i32* %39, align 16, !tbaa !8
  %41 = call i32 (i8*, ...) @printf(i8* nonnull dereferenceable(1) getelementptr inbounds ([3 x i8], [3 x i8]* @.str, i64 0, i64 0), i32 %40)
  %42 = icmp sgt i32 %58, 1
  br i1 %42, label %43, label %52

43:                                               ; preds = %38
  %44 = zext i32 %58 to i64
  br label %45

45:                                               ; preds = %43, %45
  %46 = phi i64 [ 1, %43 ], [ %50, %45 ]
  %47 = getelementptr inbounds [10000 x i32], [10000 x i32]* %3, i64 0, i64 %46
  %48 = load i32, i32* %47, align 4, !tbaa !8
  %49 = call i32 (i8*, ...) @printf(i8* nonnull dereferenceable(1) getelementptr inbounds ([4 x i8], [4 x i8]* @.str.1, i64 0, i64 0), i32 %48)
  %50 = add nuw nsw i64 %46, 1
  %51 = icmp eq i64 %50, %44
  br i1 %51, label %52, label %45, !llvm.loop !12

52:                                               ; preds = %45, %38
  call void @llvm.lifetime.end.p0i8(i64 40000, i8* nonnull %6) #5
  call void @llvm.lifetime.end.p0i8(i64 40000, i8* nonnull %5) #5
  call void @llvm.lifetime.end.p0i8(i64 10000, i8* nonnull %4) #5
  ret void

53:                                               ; preds = %32
  %54 = sext i32 %33 to i64
  %55 = getelementptr inbounds [10000 x i32], [10000 x i32]* %3, i64 0, i64 %54
  store i32 %36, i32* %55, align 4, !tbaa !8
  %56 = add nsw i32 %33, 1
  br label %57

57:                                               ; preds = %53, %32
  %58 = phi i32 [ %56, %53 ], [ %33, %32 ]
  %59 = add nuw nsw i64 %23, 2
  %60 = icmp eq i64 %59, 1000
  br i1 %60, label %38, label %22, !llvm.loop !13
}

; Function Attrs: argmemonly mustprogress nofree nosync nounwind willreturn
declare void @llvm.lifetime.start.p0i8(i64 immarg, i8* nocapture) #1

; Function Attrs: argmemonly mustprogress nofree nounwind willreturn writeonly
declare void @llvm.memset.p0i8.i64(i8* nocapture writeonly, i8, i64, i1 immarg) #2

declare i32 @gets(...) local_unnamed_addr #3

; Function Attrs: nofree nounwind
declare noundef i32 @printf(i8* nocapture noundef readonly, ...) local_unnamed_addr #4

; Function Attrs: argmemonly mustprogress nofree nosync nounwind willreturn
declare void @llvm.lifetime.end.p0i8(i64 immarg, i8* nocapture) #1


!llvm.module.flags = !{!0, !1, !2, !3}
!llvm.ident = !{!4}

!0 = !{i32 1, !"wchar_size", i32 4}
!1 = !{i32 7, !"PIC Level", i32 2}
!2 = !{i32 7, !"PIE Level", i32 2}
!3 = !{i32 7, !"uwtable", i32 1}
!4 = !{!"clang version 13.0.0"}
!5 = !{!6, !6, i64 0}
!6 = !{!"omnipotent char", !7, i64 0}
!7 = !{!"Simple C/C++ TBAA"}
!8 = !{!9, !9, i64 0}
!9 = !{!"int", !6, i64 0}
!10 = distinct !{!10, !11}
!11 = !{!"llvm.loop.mustprogress"}
!12 = distinct !{!12, !11}
!13 = distinct !{!13, !11}
